target datalayout = "e-m:e-p270:32:32-p271:32:32-p272:64:64-i64:64-i128:128-f80:128-n8:16:32:64-S128"
target triple = "x86_64-pc-linux-gnu"

%"class.cv::Size_" = type { i32, i32 }
%"class.cv::Mat" = type { i32, i32, i32, i32, ptr, ptr, ptr, ptr, ptr, ptr, %"struct.cv::MatSize", %"struct.cv::MatStep" }
%"struct.cv::MatSize" = type { ptr }
%"struct.cv::MatStep" = type { ptr, [2 x i64] }
%"struct.cv::MomentsInTile_SIMD.4" = type { i8 }

; Function Attrs: mustprogress nounwind uwtable
define linkonce_odr hidden void @_ZN2cv5Size_IiEC2Eii(ptr noundef nonnull align 4 dereferenceable(8) %0, i32 noundef %1, i32 noundef %2) unnamed_addr #0 comdat align 2 {
  %4 = alloca ptr, align 8
  %5 = alloca i32, align 4
  %6 = alloca i32, align 4
  store ptr %0, ptr %4, align 8
  store i32 %1, ptr %5, align 4
  store i32 %2, ptr %6, align 4
  %7 = load ptr, ptr %4, align 8
  %8 = getelementptr inbounds %"class.cv::Size_", ptr %7, i32 0, i32 0
  %9 = load i32, ptr %5, align 4
  store i32 %9, ptr %8, align 4
  %10 = getelementptr inbounds %"class.cv::Size_", ptr %7, i32 0, i32 1
  %11 = load i32, ptr %6, align 4
  store i32 %11, ptr %10, align 4
  ret void
}

; Function Attrs: mustprogress nounwind uwtable
define linkonce_odr hidden noundef i32 @_ZN2cv18MomentsInTile_SIMDIdddEclEPKdiRdS4_S4_S4_(ptr noundef nonnull align 1 dereferenceable(1) %0, ptr noundef %1, i32 noundef %2, ptr noundef nonnull align 8 dereferenceable(8) %3, ptr noundef nonnull align 8 dereferenceable(8) %4, ptr noundef nonnull align 8 dereferenceable(8) %5, ptr noundef nonnull align 8 dereferenceable(8) %6) #0 comdat align 2 {
  %8 = alloca ptr, align 8
  %9 = alloca ptr, align 8
  %10 = alloca i32, align 4
  %11 = alloca ptr, align 8
  %12 = alloca ptr, align 8
  %13 = alloca ptr, align 8
  %14 = alloca ptr, align 8
  store ptr %0, ptr %8, align 8
  store ptr %1, ptr %9, align 8
  store i32 %2, ptr %10, align 4
  store ptr %3, ptr %11, align 8
  store ptr %4, ptr %12, align 8
  store ptr %5, ptr %13, align 8
  store ptr %6, ptr %14, align 8
  ret i32 0
}

; Function Attrs: mustprogress nounwind uwtable
define linkonce_odr hidden noundef ptr @_ZNK2cv3Mat3ptrIdEEPKT_i(ptr noundef nonnull align 8 dereferenceable(96) %0, i32 noundef %1) #0 comdat align 2 {
  %3 = alloca ptr, align 8
  %4 = alloca i32, align 4
  store ptr %0, ptr %3, align 8
  store i32 %1, ptr %4, align 4
  %5 = load ptr, ptr %3, align 8
  %6 = getelementptr inbounds %"class.cv::Mat", ptr %5, i32 0, i32 4
  %7 = load ptr, ptr %6, align 8
  %8 = getelementptr inbounds %"class.cv::Mat", ptr %5, i32 0, i32 11
  %9 = getelementptr inbounds %"struct.cv::MatStep", ptr %8, i32 0, i32 0
  %10 = load ptr, ptr %9, align 8
  %11 = getelementptr inbounds i64, ptr %10, i64 0
  %12 = load i64, ptr %11, align 8
  %13 = load i32, ptr %4, align 4
  %14 = sext i32 %13 to i64
  %15 = mul i64 %12, %14
  %16 = getelementptr inbounds i8, ptr %7, i64 %15
  ret ptr %16
}

; Function Attrs: mustprogress uwtable
define linkonce_odr hidden i64 @_ZNK2cv7MatSizeclEv(ptr noundef nonnull align 8 dereferenceable(8) %0) #1 comdat align 2 {
  %2 = alloca %"class.cv::Size_", align 4
  %3 = alloca ptr, align 8
  store ptr %0, ptr %3, align 8
  %4 = load ptr, ptr %3, align 8
  %5 = getelementptr inbounds %"struct.cv::MatSize", ptr %4, i32 0, i32 0
  %6 = load ptr, ptr %5, align 8
  %7 = getelementptr inbounds i32, ptr %6, i64 1
  %8 = load i32, ptr %7, align 4
  %9 = getelementptr inbounds %"struct.cv::MatSize", ptr %4, i32 0, i32 0
  %10 = load ptr, ptr %9, align 8
  %11 = getelementptr inbounds i32, ptr %10, i64 0
  %12 = load i32, ptr %11, align 4
  call void @_ZN2cv5Size_IiEC2Eii(ptr noundef nonnull align 4 dereferenceable(8) %2, i32 noundef %8, i32 noundef %12)
  %13 = load i64, ptr %2, align 4
  ret i64 %13
}

; Function Attrs: mustprogress uwtable
define internal void @_ZN2cvL13momentsInTileIdddEEvRKNS_3MatEPd(ptr noundef nonnull align 8 dereferenceable(96) %0, ptr noundef %1) #1 {
  %3 = alloca ptr, align 8
  %4 = alloca ptr, align 8
  %5 = alloca %"class.cv::Size_", align 4
  %6 = alloca i32, align 4
  %7 = alloca i32, align 4
  %8 = alloca [10 x double], align 16
  %9 = alloca %"struct.cv::MomentsInTile_SIMD.4", align 1
  %10 = alloca ptr, align 8
  %11 = alloca double, align 8
  %12 = alloca double, align 8
  %13 = alloca double, align 8
  %14 = alloca double, align 8
  %15 = alloca double, align 8
  %16 = alloca double, align 8
  %17 = alloca double, align 8
  %18 = alloca double, align 8
  %19 = alloca double, align 8
  store ptr %0, ptr %3, align 8
  store ptr %1, ptr %4, align 8
  %20 = load ptr, ptr %3, align 8
  %21 = getelementptr inbounds %"class.cv::Mat", ptr %20, i32 0, i32 10
  %22 = call i64 @_ZNK2cv7MatSizeclEv(ptr noundef nonnull align 8 dereferenceable(8) %21)
  store i64 %22, ptr %5, align 4
  call void @llvm.memset.p0.i64(ptr align 16 %8, i8 0, i64 80, i1 false)
  store i32 0, ptr %7, align 4
  br label %23

23:                                               ; preds = %128, %2
  %24 = load i32, ptr %7, align 4
  %25 = getelementptr inbounds %"class.cv::Size_", ptr %5, i32 0, i32 1
  %26 = load i32, ptr %25, align 4
  %27 = icmp slt i32 %24, %26
  br i1 %27, label %28, label %131

28:                                               ; preds = %23
  %29 = load ptr, ptr %3, align 8
  %30 = load i32, ptr %7, align 4
  %31 = call noundef ptr @_ZNK2cv3Mat3ptrIdEEPKT_i(ptr noundef nonnull align 8 dereferenceable(96) %29, i32 noundef %30)
  store ptr %31, ptr %10, align 8
  store double 0.000000e+00, ptr %11, align 8
  store double 0.000000e+00, ptr %12, align 8
  store double 0.000000e+00, ptr %13, align 8
  store double 0.000000e+00, ptr %14, align 8
  %32 = load ptr, ptr %10, align 8
  %33 = getelementptr inbounds %"class.cv::Size_", ptr %5, i32 0, i32 0
  %34 = load i32, ptr %33, align 4
  %35 = call noundef i32 @_ZN2cv18MomentsInTile_SIMDIdddEclEPKdiRdS4_S4_S4_(ptr noundef nonnull align 1 dereferenceable(1) %9, ptr noundef %32, i32 noundef %34, ptr noundef nonnull align 8 dereferenceable(8) %11, ptr noundef nonnull align 8 dereferenceable(8) %12, ptr noundef nonnull align 8 dereferenceable(8) %13, ptr noundef nonnull align 8 dereferenceable(8) %14)
  store i32 %35, ptr %6, align 4
  br label %36

36:                                               ; preds = %69, %28
  %37 = load i32, ptr %6, align 4
  %38 = getelementptr inbounds %"class.cv::Size_", ptr %5, i32 0, i32 0
  %39 = load i32, ptr %38, align 4
  %40 = icmp slt i32 %37, %39
  br i1 %40, label %41, label %72

41:                                               ; preds = %36
  %42 = load ptr, ptr %10, align 8
  %43 = load i32, ptr %6, align 4
  %44 = sext i32 %43 to i64
  %45 = getelementptr inbounds double, ptr %42, i64 %44
  %46 = load double, ptr %45, align 8
  store double %46, ptr %15, align 8
  %47 = load i32, ptr %6, align 4
  %48 = sitofp i32 %47 to double
  %49 = load double, ptr %15, align 8
  %50 = fmul double %48, %49
  store double %50, ptr %16, align 8
  %51 = load double, ptr %15, align 8
  %52 = load double, ptr %11, align 8
  %53 = fadd double %52, %51
  store double %53, ptr %11, align 8
  %54 = load double, ptr %16, align 8
  %55 = load double, ptr %12, align 8
  %56 = fadd double %55, %54
  store double %56, ptr %12, align 8
  %57 = load double, ptr %16, align 8
  %58 = load i32, ptr %6, align 4
  %59 = sitofp i32 %58 to double
  %60 = fmul double %57, %59
  store double %60, ptr %17, align 8
  %61 = load double, ptr %17, align 8
  %62 = load double, ptr %13, align 8
  %63 = fadd double %62, %61
  store double %63, ptr %13, align 8
  %64 = load double, ptr %17, align 8
  %65 = load i32, ptr %6, align 4
  %66 = sitofp i32 %65 to double
  %67 = load double, ptr %14, align 8
  %68 = call double @llvm.fmuladd.f64(double %64, double %66, double %67)
  store double %68, ptr %14, align 8
  br label %69

69:                                               ; preds = %41
  %70 = load i32, ptr %6, align 4
  %71 = add nsw i32 %70, 1
  store i32 %71, ptr %6, align 4
  br label %36, !llvm.loop !21

72:                                               ; preds = %36
  %73 = load i32, ptr %7, align 4
  %74 = sitofp i32 %73 to double
  %75 = load double, ptr %11, align 8
  %76 = fmul double %74, %75
  store double %76, ptr %18, align 8
  %77 = load i32, ptr %7, align 4
  %78 = load i32, ptr %7, align 4
  %79 = mul nsw i32 %77, %78
  %80 = sitofp i32 %79 to double
  store double %80, ptr %19, align 8
  %81 = load double, ptr %18, align 8
  %82 = load double, ptr %19, align 8
  %83 = getelementptr inbounds [10 x double], ptr %8, i64 0, i64 9
  %84 = load double, ptr %83, align 8
  %85 = call double @llvm.fmuladd.f64(double %81, double %82, double %84)
  store double %85, ptr %83, align 8
  %86 = load double, ptr %12, align 8
  %87 = load double, ptr %19, align 8
  %88 = getelementptr inbounds [10 x double], ptr %8, i64 0, i64 8
  %89 = load double, ptr %88, align 16
  %90 = call double @llvm.fmuladd.f64(double %86, double %87, double %89)
  store double %90, ptr %88, align 16
  %91 = load double, ptr %13, align 8
  %92 = load i32, ptr %7, align 4
  %93 = sitofp i32 %92 to double
  %94 = getelementptr inbounds [10 x double], ptr %8, i64 0, i64 7
  %95 = load double, ptr %94, align 8
  %96 = call double @llvm.fmuladd.f64(double %91, double %93, double %95)
  store double %96, ptr %94, align 8
  %97 = load double, ptr %14, align 8
  %98 = getelementptr inbounds [10 x double], ptr %8, i64 0, i64 6
  %99 = load double, ptr %98, align 16
  %100 = fadd double %99, %97
  store double %100, ptr %98, align 16
  %101 = load double, ptr %11, align 8
  %102 = load double, ptr %19, align 8
  %103 = getelementptr inbounds [10 x double], ptr %8, i64 0, i64 5
  %104 = load double, ptr %103, align 8
  %105 = call double @llvm.fmuladd.f64(double %101, double %102, double %104)
  store double %105, ptr %103, align 8
  %106 = load double, ptr %12, align 8
  %107 = load i32, ptr %7, align 4
  %108 = sitofp i32 %107 to double
  %109 = getelementptr inbounds [10 x double], ptr %8, i64 0, i64 4
  %110 = load double, ptr %109, align 16
  %111 = call double @llvm.fmuladd.f64(double %106, double %108, double %110)
  store double %111, ptr %109, align 16
  %112 = load double, ptr %13, align 8
  %113 = getelementptr inbounds [10 x double], ptr %8, i64 0, i64 3
  %114 = load double, ptr %113, align 8
  %115 = fadd double %114, %112
  store double %115, ptr %113, align 8
  %116 = load double, ptr %18, align 8
  %117 = getelementptr inbounds [10 x double], ptr %8, i64 0, i64 2
  %118 = load double, ptr %117, align 16
  %119 = fadd double %118, %116
  store double %119, ptr %117, align 16
  %120 = load double, ptr %12, align 8
  %121 = getelementptr inbounds [10 x double], ptr %8, i64 0, i64 1
  %122 = load double, ptr %121, align 8
  %123 = fadd double %122, %120
  store double %123, ptr %121, align 8
  %124 = load double, ptr %11, align 8
  %125 = getelementptr inbounds [10 x double], ptr %8, i64 0, i64 0
  %126 = load double, ptr %125, align 16
  %127 = fadd double %126, %124
  store double %127, ptr %125, align 16
  br label %128

128:                                              ; preds = %72
  %129 = load i32, ptr %7, align 4
  %130 = add nsw i32 %129, 1
  store i32 %130, ptr %7, align 4
  br label %23, !llvm.loop !22

131:                                              ; preds = %23
  store i32 0, ptr %6, align 4
  br label %132

132:                                              ; preds = %144, %131
  %133 = load i32, ptr %6, align 4
  %134 = icmp slt i32 %133, 10
  br i1 %134, label %135, label %147

135:                                              ; preds = %132
  %136 = load i32, ptr %6, align 4
  %137 = sext i32 %136 to i64
  %138 = getelementptr inbounds [10 x double], ptr %8, i64 0, i64 %137
  %139 = load double, ptr %138, align 8
  %140 = load ptr, ptr %4, align 8
  %141 = load i32, ptr %6, align 4
  %142 = sext i32 %141 to i64
  %143 = getelementptr inbounds double, ptr %140, i64 %142
  store double %139, ptr %143, align 8
  br label %144

144:                                              ; preds = %135
  %145 = load i32, ptr %6, align 4
  %146 = add nsw i32 %145, 1
  store i32 %146, ptr %6, align 4
  br label %132, !llvm.loop !23

147:                                              ; preds = %132
  ret void
}