; Function Attrs: mustprogress nofree norecurse nosync nounwind memory(read, argmem: readwrite, inaccessiblemem: none) uwtable
define internal void @_ZN2cvL13momentsInTileIdddEEvRKNS_3MatEPd(ptr nocapture noundef nonnull readonly align 8 dereferenceable(96) %0, ptr nocapture noundef writeonly %1) unnamed_addr #7 {
  %3 = getelementptr inbounds i8, ptr %0, i64 64
  %4 = load ptr, ptr %3, align 8
  %5 = getelementptr inbounds i8, ptr %4, i64 4
  %6 = load i32, ptr %5, align 4
  %7 = load i32, ptr %4, align 4
  %8 = icmp sgt i32 %7, 0
  br i1 %8, label %.lr.ph61, label %.preheader

.lr.ph61:                                         ; preds = %2
  %9 = getelementptr inbounds i8, ptr %0, i64 16
  %10 = load ptr, ptr %9, align 8
  %11 = getelementptr inbounds i8, ptr %0, i64 72
  %12 = load ptr, ptr %11, align 8
  %13 = load i64, ptr %12, align 8
  %14 = icmp sgt i32 %6, 0
  br i1 %14, label %.lr.ph.us.preheader, label %.preheader

.lr.ph.us.preheader:                              ; preds = %.lr.ph61
  %wide.trip.count120 = zext nneg i32 %7 to i64
  %wide.trip.count = zext nneg i32 %6 to i64
  br label %.lr.ph.us

.lr.ph.us:                                        ; preds = %.lr.ph.us.preheader, %._crit_edge.us
  %indvars.iv117 = phi i64 [ 0, %.lr.ph.us.preheader ], [ %indvars.iv.next118, %._crit_edge.us ]
  %15 = phi double [ 0.000000e+00, %.lr.ph.us.preheader ], [ %53, %._crit_edge.us ]
  %16 = phi double [ 0.000000e+00, %.lr.ph.us.preheader ], [ %52, %._crit_edge.us ]
  %17 = phi double [ 0.000000e+00, %.lr.ph.us.preheader ], [ %51, %._crit_edge.us ]
  %18 = phi double [ 0.000000e+00, %.lr.ph.us.preheader ], [ %50, %._crit_edge.us ]
  %19 = phi <2 x double> [ zeroinitializer, %.lr.ph.us.preheader ], [ %57, %._crit_edge.us ]
  %20 = phi <2 x double> [ zeroinitializer, %.lr.ph.us.preheader ], [ %56, %._crit_edge.us ]
  %21 = phi <2 x double> [ zeroinitializer, %.lr.ph.us.preheader ], [ %49, %._crit_edge.us ]
  %22 = mul i64 %13, %indvars.iv117
  %23 = getelementptr inbounds i8, ptr %10, i64 %22
  br label %24

24:                                               ; preds = %.lr.ph.us, %24
  %indvars.iv = phi i64 [ 0, %.lr.ph.us ], [ %indvars.iv.next, %24 ]
  %.04754.us = phi double [ 0.000000e+00, %.lr.ph.us ], [ %36, %24 ]
  %.04853.us = phi double [ 0.000000e+00, %.lr.ph.us ], [ %35, %24 ]
  %25 = phi <2 x double> [ zeroinitializer, %.lr.ph.us ], [ %33, %24 ]
  %26 = getelementptr inbounds double, ptr %23, i64 %indvars.iv
  %27 = load double, ptr %26, align 8
  %28 = trunc nuw nsw i64 %indvars.iv to i32
  %29 = uitofp nneg i32 %28 to double
  %30 = fmul double %27, %29
  %31 = insertelement <2 x double> poison, double %27, i64 0
  %32 = insertelement <2 x double> %31, double %30, i64 1
  %33 = fadd <2 x double> %25, %32
  %34 = fmul double %30, %29
  %35 = fadd double %.04853.us, %34
  %36 = tail call double @llvm.fmuladd.f64(double %34, double %29, double %.04754.us)
  %indvars.iv.next = add nuw nsw i64 %indvars.iv, 1
  %exitcond116.not = icmp eq i64 %indvars.iv.next, %wide.trip.count
  br i1 %exitcond116.not, label %._crit_edge.us, label %24, !llvm.loop !26

._crit_edge.us:                                   ; preds = %24
  %37 = trunc nuw nsw i64 %indvars.iv117 to i32
  %38 = uitofp nneg i32 %37 to double
  %39 = extractelement <2 x double> %33, i64 0
  %40 = fmul double %39, %38
  %41 = mul nuw nsw i64 %indvars.iv117, %indvars.iv117
  %42 = trunc nuw i64 %41 to i32
  %43 = uitofp nneg i32 %42 to double
  %44 = extractelement <2 x double> %33, i64 1
  %45 = shufflevector <2 x double> %33, <2 x double> poison, <2 x i32> <i32 1, i32 poison>
  %46 = insertelement <2 x double> %45, double %40, i64 1
  %47 = insertelement <2 x double> poison, double %43, i64 0
  %48 = shufflevector <2 x double> %47, <2 x double> poison, <2 x i32> zeroinitializer
  %49 = tail call <2 x double> @llvm.fmuladd.v2f64(<2 x double> %46, <2 x double> %48, <2 x double> %21)
  %50 = tail call double @llvm.fmuladd.f64(double %35, double %38, double %18)
  %51 = fadd double %36, %17
  %52 = tail call double @llvm.fmuladd.f64(double %39, double %43, double %16)
  %53 = tail call double @llvm.fmuladd.f64(double %44, double %38, double %15)
  %54 = insertelement <2 x double> poison, double %40, i64 0
  %55 = insertelement <2 x double> %54, double %35, i64 1
  %56 = fadd <2 x double> %55, %20
  %57 = fadd <2 x double> %33, %19
  %indvars.iv.next118 = add nuw nsw i64 %indvars.iv117, 1
  %exitcond121.not = icmp eq i64 %indvars.iv.next118, %wide.trip.count120
  br i1 %exitcond121.not, label %.preheader, label %.lr.ph.us, !llvm.loop !27

.preheader:                                       ; preds = %._crit_edge.us, %.lr.ph61, %2
  %.sroa.9.0 = phi double [ 0.000000e+00, %2 ], [ 0.000000e+00, %.lr.ph61 ], [ %53, %._crit_edge.us ]
  %.sroa.11.0 = phi double [ 0.000000e+00, %2 ], [ 0.000000e+00, %.lr.ph61 ], [ %52, %._crit_edge.us ]
  %.sroa.13.0 = phi double [ 0.000000e+00, %2 ], [ 0.000000e+00, %.lr.ph61 ], [ %51, %._crit_edge.us ]
  %.sroa.15.0 = phi double [ 0.000000e+00, %2 ], [ 0.000000e+00, %.lr.ph61 ], [ %50, %._crit_edge.us ]
  %58 = phi <2 x double> [ zeroinitializer, %2 ], [ zeroinitializer, %.lr.ph61 ], [ %57, %._crit_edge.us ]
  %59 = phi <2 x double> [ zeroinitializer, %2 ], [ zeroinitializer, %.lr.ph61 ], [ %56, %._crit_edge.us ]
  %60 = phi <2 x double> [ zeroinitializer, %2 ], [ zeroinitializer, %.lr.ph61 ], [ %49, %._crit_edge.us ]
  store <2 x double> %58, ptr %1, align 8
  %.sroa.5.0..sroa_idx = getelementptr inbounds i8, ptr %1, i64 16
  store <2 x double> %59, ptr %.sroa.5.0..sroa_idx, align 8
  %.sroa.9.0..sroa_idx = getelementptr inbounds i8, ptr %1, i64 32
  store double %.sroa.9.0, ptr %.sroa.9.0..sroa_idx, align 8
  %.sroa.11.0..sroa_idx = getelementptr inbounds i8, ptr %1, i64 40
  store double %.sroa.11.0, ptr %.sroa.11.0..sroa_idx, align 8
  %.sroa.13.0..sroa_idx = getelementptr inbounds i8, ptr %1, i64 48
  store double %.sroa.13.0, ptr %.sroa.13.0..sroa_idx, align 8
  %.sroa.15.0..sroa_idx = getelementptr inbounds i8, ptr %1, i64 56
  store double %.sroa.15.0, ptr %.sroa.15.0..sroa_idx, align 8
  %.sroa.17.0..sroa_idx = getelementptr inbounds i8, ptr %1, i64 64
  store <2 x double> %60, ptr %.sroa.17.0..sroa_idx, align 8
  ret void
}